target datalayout = "e-m:e-p270:32:32-p271:32:32-p272:64:64-i64:64-i128:128-f80:128-n8:16:32:64-S128"
target triple = "x86_64-pc-linux-gnu"

%struct.pointf_s = type { double, double }
%struct.boxf = type { %struct.pointf_s, %struct.pointf_s }
%struct.GVJ_s = type { ptr, ptr, ptr, ptr, ptr, ptr, i32, ptr, ptr, ptr, ptr, i64, i64, ptr, i32, %struct.gvplugin_active_render_s, %struct.gvplugin_active_device_s, %struct.gvplugin_active_loadimage_t, ptr, %struct.pointf_s, i8, ptr, i32, ptr, i8, ptr, i32, i32, i32, %struct.point, %struct.point, %struct.point, %struct.point, %struct.point, i32, %struct.boxf, %struct.pointf_s, %struct.boxf, %struct.boxf, %struct.pointf_s, %struct.pointf_s, double, i32, %struct.pointf_s, %struct.boxf, %struct.pointf_s, %struct.pointf_s, i32, i32, %struct.box, %struct.box, %struct.pointf_s, %struct.pointf_s, %struct.pointf_s, i8, i8, i8, i8, i8, i8, %struct.pointf_s, %struct.pointf_s, ptr, ptr, ptr, ptr, ptr, ptr, i64, ptr }
%struct.gvplugin_active_render_s = type { ptr, i32, ptr, ptr }
%struct.gvplugin_active_device_s = type { ptr, i32, ptr, ptr }
%struct.gvplugin_active_loadimage_t = type { ptr, i32, ptr }
%struct.point = type { i32, i32 }
%struct.box = type { %struct.point, %struct.point }
%struct.obj_state_s = type { ptr, i32, %union.anon, i32, %struct.color_s, %struct.color_s, %struct.color_s, i32, double, i32, i32, double, ptr, double, double, double, ptr, ptr, ptr, ptr, ptr, ptr, ptr, ptr, ptr, ptr, ptr, ptr, ptr, ptr, ptr, ptr, ptr, i16, i32, i64, ptr, i64, ptr, ptr, i32, ptr, i32, ptr }
%union.anon = type { ptr }
%struct.color_s = type { %union.anon.0, i32 }
%union.anon.0 = type { [4 x double] }
%struct.xdot_state_t = type { ptr, ptr, ptr, ptr, ptr, ptr, ptr, ptr, ptr, ptr, i16, ptr, double }

@xd = internal global ptr null, align 8
@.str.34 = private unnamed_addr constant [3 x i8] c"c \00", align 1
@.str.35 = private unnamed_addr constant [22 x i8] c"%s%zu -#%02x%02x%02x \00", align 1
@.str.36 = private unnamed_addr constant [26 x i8] c"%s%zu -#%02x%02x%02x%02x \00", align 1
@.str.50 = private unnamed_addr constant [8 x i8] c"%c %zu \00", align 1

; Function Attrs: nounwind uwtable
define internal void @xdot_str_color_xbuf(ptr noundef %0, ptr noundef %1, ptr noundef %2) #0 {
  %4 = alloca ptr, align 8
  %5 = alloca ptr, align 8
  %6 = alloca ptr, align 8
  store ptr %0, ptr %4, align 8, !tbaa !41
  store ptr %1, ptr %5, align 8, !tbaa !50
  store ptr %2, ptr %6, align 8, !tbaa !50
  %7 = load ptr, ptr %6, align 8, !tbaa !50
  %8 = getelementptr inbounds i8, ptr %7, i64 3
  %9 = load i8, ptr %8, align 1, !tbaa !59
  %10 = zext i8 %9 to i32
  %11 = icmp eq i32 %10, 255
  br i1 %11, label %12, label %28

12:                                               ; preds = %3
  %13 = load ptr, ptr %4, align 8, !tbaa !41
  %14 = load ptr, ptr %5, align 8, !tbaa !50
  %15 = load ptr, ptr %6, align 8, !tbaa !50
  %16 = getelementptr inbounds i8, ptr %15, i64 0
  %17 = load i8, ptr %16, align 1, !tbaa !59
  %18 = zext i8 %17 to i32
  %19 = load ptr, ptr %6, align 8, !tbaa !50
  %20 = getelementptr inbounds i8, ptr %19, i64 1
  %21 = load i8, ptr %20, align 1, !tbaa !59
  %22 = zext i8 %21 to i32
  %23 = load ptr, ptr %6, align 8, !tbaa !50
  %24 = getelementptr inbounds i8, ptr %23, i64 2
  %25 = load i8, ptr %24, align 1, !tbaa !59
  %26 = zext i8 %25 to i32
  %27 = call i32 (ptr, ptr, ...) @agxbprint(ptr noundef %13, ptr noundef @.str.35, ptr noundef %14, i64 noundef 7, i32 noundef %18, i32 noundef %22, i32 noundef %26)
  br label %48

28:                                               ; preds = %3
  %29 = load ptr, ptr %4, align 8, !tbaa !41
  %30 = load ptr, ptr %5, align 8, !tbaa !50
  %31 = load ptr, ptr %6, align 8, !tbaa !50
  %32 = getelementptr inbounds i8, ptr %31, i64 0
  %33 = load i8, ptr %32, align 1, !tbaa !59
  %34 = zext i8 %33 to i32
  %35 = load ptr, ptr %6, align 8, !tbaa !50
  %36 = getelementptr inbounds i8, ptr %35, i64 1
  %37 = load i8, ptr %36, align 1, !tbaa !59
  %38 = zext i8 %37 to i32
  %39 = load ptr, ptr %6, align 8, !tbaa !50
  %40 = getelementptr inbounds i8, ptr %39, i64 2
  %41 = load i8, ptr %40, align 1, !tbaa !59
  %42 = zext i8 %41 to i32
  %43 = load ptr, ptr %6, align 8, !tbaa !50
  %44 = getelementptr inbounds i8, ptr %43, i64 3
  %45 = load i8, ptr %44, align 1, !tbaa !59
  %46 = zext i8 %45 to i32
  %47 = call i32 (ptr, ptr, ...) @agxbprint(ptr noundef %29, ptr noundef @.str.36, ptr noundef %30, i64 noundef 9, i32 noundef %34, i32 noundef %38, i32 noundef %42, i32 noundef %46)
  br label %48

48:                                               ; preds = %28, %12
  ret void
}

; Function Attrs: nounwind uwtable
define internal void @xdot_point(ptr noundef %0, double %1, double %2) #0 {
  %4 = alloca %struct.pointf_s, align 8
  %5 = alloca ptr, align 8
  %6 = getelementptr inbounds nuw { double, double }, ptr %4, i32 0, i32 0
  store double %1, ptr %6, align 8
  %7 = getelementptr inbounds nuw { double, double }, ptr %4, i32 0, i32 1
  store double %2, ptr %7, align 8
  store ptr %0, ptr %5, align 8, !tbaa !41
  %8 = load ptr, ptr %5, align 8, !tbaa !41
  %9 = getelementptr inbounds nuw %struct.pointf_s, ptr %4, i32 0, i32 0
  %10 = load double, ptr %9, align 8, !tbaa !52
  call void @xdot_fmt_num(ptr noundef %8, double noundef %10)
  %11 = load ptr, ptr %5, align 8, !tbaa !41
  %12 = getelementptr inbounds nuw %struct.pointf_s, ptr %4, i32 0, i32 1
  %13 = load double, ptr %12, align 8, !tbaa !53
  %14 = load ptr, ptr @xd, align 8, !tbaa !41
  %15 = getelementptr inbounds nuw %struct.xdot_state_t, ptr %14, i32 0, i32 12
  %16 = load double, ptr %15, align 8, !tbaa !54
  %17 = call double @yDir(double noundef %13, double noundef %16)
  call void @xdot_fmt_num(ptr noundef %11, double noundef %17)
  ret void
}

; Function Attrs: nounwind uwtable
define internal void @xdot_str_color(ptr noundef %0, ptr noundef %1, ptr noundef %2) #0 {
  %4 = alloca ptr, align 8
  %5 = alloca ptr, align 8
  %6 = alloca ptr, align 8
  %7 = alloca i32, align 4
  %8 = alloca ptr, align 8
  store ptr %0, ptr %4, align 8, !tbaa !3
  store ptr %1, ptr %5, align 8, !tbaa !50
  store ptr %2, ptr %6, align 8, !tbaa !50
  call void @llvm.lifetime.start.p0(i64 4, ptr %7) #14
  %9 = load ptr, ptr %4, align 8, !tbaa !3
  %10 = getelementptr inbounds nuw %struct.GVJ_s, ptr %9, i32 0, i32 4
  %11 = load ptr, ptr %10, align 8, !tbaa !12
  %12 = getelementptr inbounds nuw %struct.obj_state_s, ptr %11, i32 0, i32 3
  %13 = load i32, ptr %12, align 8, !tbaa !34
  store i32 %13, ptr %7, align 4, !tbaa !40
  call void @llvm.lifetime.start.p0(i64 8, ptr %8) #14
  %14 = load i32, ptr %7, align 4, !tbaa !40
  %15 = zext i32 %14 to i64
  %16 = getelementptr inbounds nuw [12 x ptr], ptr @xbufs, i64 0, i64 %15
  %17 = load ptr, ptr %16, align 8, !tbaa !41
  store ptr %17, ptr %8, align 8, !tbaa !41
  %18 = load ptr, ptr %8, align 8, !tbaa !41
  %19 = load ptr, ptr %5, align 8, !tbaa !50
  %20 = load ptr, ptr %6, align 8, !tbaa !50
  call void @xdot_str_color_xbuf(ptr noundef %18, ptr noundef %19, ptr noundef %20)
  call void @llvm.lifetime.end.p0(i64 8, ptr %8) #14
  call void @llvm.lifetime.end.p0(i64 4, ptr %7) #14
  ret void
}

; Function Attrs: nounwind uwtable
define internal void @xdot_points(ptr noundef %0, i8 noundef signext %1, ptr noundef %2, i64 noundef %3) #0 {
  %5 = alloca ptr, align 8
  %6 = alloca i8, align 1
  %7 = alloca ptr, align 8
  %8 = alloca i64, align 8
  %9 = alloca i32, align 4
  %10 = alloca i64, align 8
  store ptr %0, ptr %5, align 8, !tbaa !3
  store i8 %1, ptr %6, align 1, !tbaa !59
  store ptr %2, ptr %7, align 8, !tbaa !125
  store i64 %3, ptr %8, align 8, !tbaa !51
  call void @llvm.lifetime.start.p0(i64 4, ptr %9) #14
  %11 = load ptr, ptr %5, align 8, !tbaa !3
  %12 = getelementptr inbounds nuw %struct.GVJ_s, ptr %11, i32 0, i32 4
  %13 = load ptr, ptr %12, align 8, !tbaa !12
  %14 = getelementptr inbounds nuw %struct.obj_state_s, ptr %13, i32 0, i32 3
  %15 = load i32, ptr %14, align 8, !tbaa !34
  store i32 %15, ptr %9, align 4, !tbaa !40
  %16 = load i32, ptr %9, align 4, !tbaa !40
  %17 = zext i32 %16 to i64
  %18 = getelementptr inbounds nuw [12 x ptr], ptr @xbufs, i64 0, i64 %17
  %19 = load ptr, ptr %18, align 8, !tbaa !41
  %20 = load i8, ptr %6, align 1, !tbaa !59
  %21 = sext i8 %20 to i32
  %22 = load i64, ptr %8, align 8, !tbaa !51
  %23 = call i32 (ptr, ptr, ...) @agxbprint(ptr noundef %19, ptr noundef @.str.50, i32 noundef %21, i64 noundef %22)
  call void @llvm.lifetime.start.p0(i64 8, ptr %10) #14
  store i64 0, ptr %10, align 8, !tbaa !51
  br label %24

24:                                               ; preds = %41, %4
  %25 = load i64, ptr %10, align 8, !tbaa !51
  %26 = load i64, ptr %8, align 8, !tbaa !51
  %27 = icmp ult i64 %25, %26
  br i1 %27, label %29, label %28

28:                                               ; preds = %24
  call void @llvm.lifetime.end.p0(i64 8, ptr %10) #14
  br label %44

29:                                               ; preds = %24
  %30 = load i32, ptr %9, align 4, !tbaa !40
  %31 = zext i32 %30 to i64
  %32 = getelementptr inbounds nuw [12 x ptr], ptr @xbufs, i64 0, i64 %31
  %33 = load ptr, ptr %32, align 8, !tbaa !41
  %34 = load ptr, ptr %7, align 8, !tbaa !125
  %35 = load i64, ptr %10, align 8, !tbaa !51
  %36 = getelementptr inbounds nuw %struct.pointf_s, ptr %34, i64 %35
  %37 = getelementptr inbounds nuw { double, double }, ptr %36, i32 0, i32 0
  %38 = load double, ptr %37, align 8
  %39 = getelementptr inbounds nuw { double, double }, ptr %36, i32 0, i32 1
  %40 = load double, ptr %39, align 8
  call void @xdot_point(ptr noundef %33, double %38, double %40)
  br label %41

41:                                               ; preds = %29
  %42 = load i64, ptr %10, align 8, !tbaa !51
  %43 = add i64 %42, 1
  store i64 %43, ptr %10, align 8, !tbaa !51
  br label %24, !llvm.loop !153

44:                                               ; preds = %28
  call void @llvm.lifetime.end.p0(i64 4, ptr %9) #14
  ret void
}

; Function Attrs: nounwind uwtable
define internal void @xdot_pencolor(ptr noundef %0) #0 {
  %2 = alloca ptr, align 8
  store ptr %0, ptr %2, align 8, !tbaa !3
  %3 = load ptr, ptr %2, align 8, !tbaa !3
  %4 = load ptr, ptr %2, align 8, !tbaa !3
  %5 = getelementptr inbounds nuw %struct.GVJ_s, ptr %4, i32 0, i32 4
  %6 = load ptr, ptr %5, align 8, !tbaa !12
  %7 = getelementptr inbounds nuw %struct.obj_state_s, ptr %6, i32 0, i32 4
  %8 = getelementptr inbounds nuw %struct.color_s, ptr %7, i32 0, i32 0
  %9 = getelementptr inbounds [4 x i8], ptr %8, i64 0, i64 0
  call void @xdot_str_color(ptr noundef %3, ptr noundef @.str.34, ptr noundef %9)
  ret void
}

; Function Attrs: nounwind uwtable
define internal void @xdot_polyline(ptr noundef %0, ptr noundef %1, i64 noundef %2) #0 {
  %4 = alloca ptr, align 8
  %5 = alloca ptr, align 8
  %6 = alloca i64, align 8
  store ptr %0, ptr %4, align 8, !tbaa !3
  store ptr %1, ptr %5, align 8, !tbaa !125
  store i64 %2, ptr %6, align 8, !tbaa !51
  %7 = load ptr, ptr %4, align 8, !tbaa !3
  call void @xdot_style(ptr noundef %7)
  %8 = load ptr, ptr %4, align 8, !tbaa !3
  call void @xdot_pencolor(ptr noundef %8)
  %9 = load ptr, ptr %4, align 8, !tbaa !3
  %10 = load ptr, ptr %5, align 8, !tbaa !125
  %11 = load i64, ptr %6, align 8, !tbaa !51
  call void @xdot_points(ptr noundef %9, i8 noundef signext 76, ptr noundef %10, i64 noundef %11)
  ret void
}