; Function Attrs: nounwind uwtable
define internal void @xdot_polyline(ptr noundef readonly captures(none) %0, ptr noundef readonly captures(none) %1, i64 noundef %2) #0 {
  tail call fastcc void @xdot_style(ptr noundef %0)
  %4 = getelementptr i8, ptr %0, i64 32
  %.val = load ptr, ptr %4, align 8, !tbaa !3
  %5 = getelementptr inbounds nuw i8, ptr %.val, i64 32
  %6 = getelementptr i8, ptr %.val, i64 24
  %.val.val.i = load i32, ptr %6, align 8, !tbaa !30
  %7 = zext i32 %.val.val.i to i64
  %8 = getelementptr inbounds nuw [12 x ptr], ptr @xbufs, i64 0, i64 %7
  %9 = load ptr, ptr %8, align 8, !tbaa !36
  %10 = getelementptr inbounds nuw i8, ptr %.val, i64 35
  %11 = load i8, ptr %10, align 1, !tbaa !37
  %12 = icmp eq i8 %11, -1
  br i1 %12, label %13, label %22

13:                                               ; preds = %3
  %14 = load i8, ptr %5, align 1, !tbaa !37
  %15 = zext i8 %14 to i32
  %16 = getelementptr inbounds nuw i8, ptr %.val, i64 33
  %17 = load i8, ptr %16, align 1, !tbaa !37
  %18 = zext i8 %17 to i32
  %19 = getelementptr inbounds nuw i8, ptr %.val, i64 34
  %20 = load i8, ptr %19, align 1, !tbaa !37
  %21 = zext i8 %20 to i32
  tail call void (ptr, ptr, ...) @agxbprint(ptr noundef %9, ptr noundef nonnull @.str.35, ptr noundef nonnull @.str.34, i64 noundef 7, i32 noundef %15, i32 noundef %18, i32 noundef %21)
  br label %xdot_pencolor.exit

22:                                               ; preds = %3
  %23 = zext i8 %11 to i32
  %24 = load i8, ptr %5, align 1, !tbaa !37
  %25 = zext i8 %24 to i32
  %26 = getelementptr inbounds nuw i8, ptr %.val, i64 33
  %27 = load i8, ptr %26, align 1, !tbaa !37
  %28 = zext i8 %27 to i32
  %29 = getelementptr inbounds nuw i8, ptr %.val, i64 34
  %30 = load i8, ptr %29, align 1, !tbaa !37
  %31 = zext i8 %30 to i32
  tail call void (ptr, ptr, ...) @agxbprint(ptr noundef %9, ptr noundef nonnull @.str.36, ptr noundef nonnull @.str.34, i64 noundef 9, i32 noundef %25, i32 noundef %28, i32 noundef %31, i32 noundef %23)
  br label %xdot_pencolor.exit

xdot_pencolor.exit:                               ; preds = %13, %22
  %.val4 = load ptr, ptr %4, align 8, !tbaa !3
  %32 = getelementptr i8, ptr %.val4, i64 24
  %.val4.val = load i32, ptr %32, align 8, !tbaa !30
  %33 = zext i32 %.val4.val to i64
  %34 = getelementptr inbounds nuw [12 x ptr], ptr @xbufs, i64 0, i64 %33
  %35 = load ptr, ptr %34, align 8, !tbaa !36
  tail call void (ptr, ptr, ...) @agxbprint(ptr noundef %35, ptr noundef nonnull @.str.50, i32 noundef 76, i64 noundef %2)
  %.not.i = icmp eq i64 %2, 0
  br i1 %.not.i, label %xdot_points.exit, label %.lr.ph.i

.lr.ph.i:                                         ; preds = %xdot_pencolor.exit, %.lr.ph.i
  %.01.i = phi i64 [ %44, %.lr.ph.i ], [ 0, %xdot_pencolor.exit ]
  %36 = getelementptr inbounds nuw %struct.pointf_s, ptr %1, i64 %.01.i
  %37 = load double, ptr %36, align 8
  %38 = getelementptr inbounds nuw i8, ptr %36, i64 8
  %39 = load double, ptr %38, align 8
  tail call fastcc void @xdot_fmt_num(ptr noundef %35, double noundef %37)
  %40 = load ptr, ptr @xd, align 8, !tbaa !36
  %41 = getelementptr inbounds nuw i8, ptr %40, i64 96
  %42 = load double, ptr %41, align 8, !tbaa !38
  %43 = tail call double @yDir(double noundef %39, double noundef %42) #18
  tail call fastcc void @xdot_fmt_num(ptr noundef %35, double noundef %43)
  %44 = add nuw i64 %.01.i, 1
  %exitcond.not.i = icmp eq i64 %44, %2
  br i1 %exitcond.not.i, label %xdot_points.exit, label %.lr.ph.i, !llvm.loop !119

xdot_points.exit:                                 ; preds = %.lr.ph.i, %xdot_pencolor.exit
  ret void
}